; ModuleID = '21/114.c'
source_filename = "21/114.c"
target datalayout = "e-m:e-p270:32:32-p271:32:32-p272:64:64-i64:64-f80:128-n8:16:32:64-S128"
target triple = "x86_64-pc-linux-gnu"

@.str = private unnamed_addr constant [3 x i8] c"%d\00", align 1
@.str.1 = private unnamed_addr constant [5 x i8] c"%d%c\00", align 1

; Function Attrs: noinline nounwind uwtable
define dso_local void @main() #0 {
  %1 = alloca i32, align 4
  %2 = alloca i32, align 4
  %3 = alloca i32, align 4
  %4 = alloca [300 x i32], align 16
  %5 = alloca i32, align 4
  %6 = alloca i32, align 4
  %7 = alloca double, align 8
  %8 = alloca [300 x double], align 16
  %9 = alloca double, align 8
  store i32 0, i32* %5, align 4
  %10 = call i32 (i8*, ...) @__isoc99_scanf(i8* getelementptr inbounds ([3 x i8], [3 x i8]* @.str, i64 0, i64 0), i32* %1)
  store i32 0, i32* %2, align 4
  br label %11

11:                                               ; preds = %26, %0
  %12 = load i32, i32* %2, align 4
  %13 = load i32, i32* %1, align 4
  %14 = icmp slt i32 %12, %13
  br i1 %14, label %15, label %29

15:                                               ; preds = %11
  %16 = load i32, i32* %2, align 4
  %17 = sext i32 %16 to i64
  %18 = getelementptr inbounds [300 x i32], [300 x i32]* %4, i64 0, i64 %17
  %19 = call i32 (i8*, ...) @__isoc99_scanf(i8* getelementptr inbounds ([3 x i8], [3 x i8]* @.str, i64 0, i64 0), i32* %18)
  %20 = load i32, i32* %2, align 4
  %21 = sext i32 %20 to i64
  %22 = getelementptr inbounds [300 x i32], [300 x i32]* %4, i64 0, i64 %21
  %23 = load i32, i32* %22, align 4
  %24 = load i32, i32* %5, align 4
  %25 = add nsw i32 %24, %23
  store i32 %25, i32* %5, align 4
  br label %26

26:                                               ; preds = %15
  %27 = load i32, i32* %2, align 4
  %28 = add nsw i32 %27, 1
  store i32 %28, i32* %2, align 4
  br label %11

29:                                               ; preds = %11
  %30 = load i32, i32* %5, align 4
  %31 = sitofp i32 %30 to double
  %32 = load i32, i32* %1, align 4
  %33 = sitofp i32 %32 to double
  %34 = fdiv double %31, %33
  store double %34, double* %7, align 8
  store i32 0, i32* %2, align 4
  br label %35

35:                                               ; preds = %51, %29
  %36 = load i32, i32* %2, align 4
  %37 = load i32, i32* %1, align 4
  %38 = icmp slt i32 %36, %37
  br i1 %38, label %39, label %54

39:                                               ; preds = %35
  %40 = load i32, i32* %2, align 4
  %41 = sext i32 %40 to i64
  %42 = getelementptr inbounds [300 x i32], [300 x i32]* %4, i64 0, i64 %41
  %43 = load i32, i32* %42, align 4
  %44 = sitofp i32 %43 to double
  %45 = load double, double* %7, align 8
  %46 = fsub double %44, %45
  %47 = call double @llvm.fabs.f64(double %46)
  %48 = load i32, i32* %2, align 4
  %49 = sext i32 %48 to i64
  %50 = getelementptr inbounds [300 x double], [300 x double]* %8, i64 0, i64 %49
  store double %47, double* %50, align 8
  br label %51

51:                                               ; preds = %39
  %52 = load i32, i32* %2, align 4
  %53 = add nsw i32 %52, 1
  store i32 %53, i32* %2, align 4
  br label %35

54:                                               ; preds = %35
  store i32 1, i32* %2, align 4
  br label %55

55:                                               ; preds = %117, %54
  %56 = load i32, i32* %2, align 4
  %57 = load i32, i32* %1, align 4
  %58 = icmp slt i32 %56, %57
  br i1 %58, label %59, label %120

59:                                               ; preds = %55
  store i32 0, i32* %3, align 4
  br label %60

60:                                               ; preds = %113, %59
  %61 = load i32, i32* %3, align 4
  %62 = load i32, i32* %1, align 4
  %63 = load i32, i32* %2, align 4
  %64 = sub nsw i32 %62, %63
  %65 = icmp slt i32 %61, %64
  br i1 %65, label %66, label %116

66:                                               ; preds = %60
  %67 = load i32, i32* %3, align 4
  %68 = sext i32 %67 to i64
  %69 = getelementptr inbounds [300 x double], [300 x double]* %8, i64 0, i64 %68
  %70 = load double, double* %69, align 8
  %71 = load i32, i32* %3, align 4
  %72 = add nsw i32 %71, 1
  %73 = sext i32 %72 to i64
  %74 = getelementptr inbounds [300 x double], [300 x double]* %8, i64 0, i64 %73
  %75 = load double, double* %74, align 8
  %76 = fcmp olt double %70, %75
  br i1 %76, label %77, label %112

77:                                               ; preds = %66
  %78 = load i32, i32* %3, align 4
  %79 = sext i32 %78 to i64
  %80 = getelementptr inbounds [300 x double], [300 x double]* %8, i64 0, i64 %79
  %81 = load double, double* %80, align 8
  store double %81, double* %9, align 8
  %82 = load i32, i32* %3, align 4
  %83 = add nsw i32 %82, 1
  %84 = sext i32 %83 to i64
  %85 = getelementptr inbounds [300 x double], [300 x double]* %8, i64 0, i64 %84
  %86 = load double, double* %85, align 8
  %87 = load i32, i32* %3, align 4
  %88 = sext i32 %87 to i64
  %89 = getelementptr inbounds [300 x double], [300 x double]* %8, i64 0, i64 %88
  store double %86, double* %89, align 8
  %90 = load double, double* %9, align 8
  %91 = load i32, i32* %3, align 4
  %92 = add nsw i32 %91, 1
  %93 = sext i32 %92 to i64
  %94 = getelementptr inbounds [300 x double], [300 x double]* %8, i64 0, i64 %93
  store double %90, double* %94, align 8
  %95 = load i32, i32* %3, align 4
  %96 = sext i32 %95 to i64
  %97 = getelementptr inbounds [300 x i32], [300 x i32]* %4, i64 0, i64 %96
  %98 = load i32, i32* %97, align 4
  store i32 %98, i32* %6, align 4
  %99 = load i32, i32* %3, align 4
  %100 = add nsw i32 %99, 1
  %101 = sext i32 %100 to i64
  %102 = getelementptr inbounds [300 x i32], [300 x i32]* %4, i64 0, i64 %101
  %103 = load i32, i32* %102, align 4
  %104 = load i32, i32* %3, align 4
  %105 = sext i32 %104 to i64
  %106 = getelementptr inbounds [300 x i32], [300 x i32]* %4, i64 0, i64 %105
  store i32 %103, i32* %106, align 4
  %107 = load i32, i32* %6, align 4
  %108 = load i32, i32* %3, align 4
  %109 = add nsw i32 %108, 1
  %110 = sext i32 %109 to i64
  %111 = getelementptr inbounds [300 x i32], [300 x i32]* %4, i64 0, i64 %110
  store i32 %107, i32* %111, align 4
  br label %112

112:                                              ; preds = %77, %66
  br label %113

113:                                              ; preds = %112
  %114 = load i32, i32* %3, align 4
  %115 = add nsw i32 %114, 1
  store i32 %115, i32* %3, align 4
  br label %60

116:                                              ; preds = %60
  br label %117

117:                                              ; preds = %116
  %118 = load i32, i32* %2, align 4
  %119 = add nsw i32 %118, 1
  store i32 %119, i32* %2, align 4
  br label %55

120:                                              ; preds = %55
  store i32 0, i32* %2, align 4
  br label %121

121:                                              ; preds = %152, %120
  %122 = load i32, i32* %2, align 4
  %123 = load i32, i32* %1, align 4
  %124 = icmp slt i32 %122, %123
  br i1 %124, label %125, label %155

125:                                              ; preds = %121
  %126 = load i32, i32* %2, align 4
  %127 = sext i32 %126 to i64
  %128 = getelementptr inbounds [300 x double], [300 x double]* %8, i64 0, i64 %127
  %129 = load double, double* %128, align 8
  %130 = getelementptr inbounds [300 x double], [300 x double]* %8, i64 0, i64 0
  %131 = load double, double* %130, align 16
  %132 = fcmp oeq double %129, %131
  br i1 %132, label %133, label %151

133:                                              ; preds = %125
  %134 = load i32, i32* %2, align 4
  %135 = sext i32 %134 to i64
  %136 = getelementptr inbounds [300 x i32], [300 x i32]* %4, i64 0, i64 %135
  %137 = load i32, i32* %136, align 4
  %138 = load i32, i32* %2, align 4
  %139 = add nsw i32 %138, 1
  %140 = sext i32 %139 to i64
  %141 = getelementptr inbounds [300 x double], [300 x double]* %8, i64 0, i64 %140
  %142 = load double, double* %141, align 8
  %143 = load i32, i32* %2, align 4
  %144 = sext i32 %143 to i64
  %145 = getelementptr inbounds [300 x double], [300 x double]* %8, i64 0, i64 %144
  %146 = load double, double* %145, align 8
  %147 = fcmp oeq double %142, %146
  %148 = zext i1 %147 to i64
  %149 = select i1 %147, i32 44, i32 10
  %150 = call i32 (i8*, ...) @printf(i8* getelementptr inbounds ([5 x i8], [5 x i8]* @.str.1, i64 0, i64 0), i32 %137, i32 %149)
  br label %151

151:                                              ; preds = %133, %125
  br label %152

152:                                              ; preds = %151
  %153 = load i32, i32* %2, align 4
  %154 = add nsw i32 %153, 1
  store i32 %154, i32* %2, align 4
  br label %121

155:                                              ; preds = %121
  ret void
}

declare dso_local i32 @__isoc99_scanf(i8*, ...) #1

; Function Attrs: nounwind readnone speculatable willreturn
declare double @llvm.fabs.f64(double) #2

declare dso_local i32 @printf(i8*, ...) #1


!llvm.module.flags = !{!0}
!llvm.ident = !{!1}

!0 = !{i32 1, !"wchar_size", i32 4}
!1 = !{!"clang version 10.0.0-4ubuntu1 "}
